target datalayout = "e-m:e-p270:32:32-p271:32:32-p272:64:64-i64:64-i128:128-f80:128-n8:16:32:64-S128"
target triple = "x86_64-unknown-linux-gnu"

%"class.llvh::ArrayRef" = type { ptr, i64 }
%"class.hermes::hbc::BytecodeSerializer" = type { ptr, ptr, %"struct.hermes::BytecodeGenerationOptions", i64, i8, i32, i32, i32, %"class.llvh::SHA1" }
%"struct.hermes::BytecodeGenerationOptions" = type <{ i32, i8, i8, i8, i8, i8, i8, i8, i8, i32, i8, [3 x i8] }>
%"class.llvh::SHA1" = type { %struct.anon.35, [5 x i32] }
%struct.anon.35 = type { %union.anon, [5 x i32], i32, i8 }
%union.anon = type { [16 x i32] }
%"class.std::vector.15" = type { %"struct.std::_Vector_base.16" }
%"struct.std::_Vector_base.16" = type { %"struct.std::_Vector_base<unsigned char, std::allocator<unsigned char>>::_Vector_impl" }
%"struct.std::_Vector_base<unsigned char, std::allocator<unsigned char>>::_Vector_impl" = type { %"struct.std::_Vector_base<unsigned char, std::allocator<unsigned char>>::_Vector_impl_data" }
%"struct.std::_Vector_base<unsigned char, std::allocator<unsigned char>>::_Vector_impl_data" = type { ptr, ptr, ptr }
%"struct.hermes::hbc::FunctionHeader" = type <{ i32, i32, i32, i32, i32, i32, i32, i8, i8, %"union.hermes::hbc::FunctionHeaderFlag" }>
%"union.hermes::hbc::FunctionHeaderFlag" = type { %struct.anon.42 }
%struct.anon.42 = type { i8 }
%"class.hermes::hbc::BytecodeFunction" = type { %"class.std::vector.15", %"struct.hermes::hbc::FunctionHeader", %"struct.hermes::hbc::DebugOffsets", %"class.std::vector.43", %"class.std::unique_ptr.48" }
%"struct.hermes::hbc::DebugOffsets" = type { i32, i32, i32 }
%"class.std::vector.43" = type { %"struct.std::_Vector_base.44" }
%"struct.std::_Vector_base.44" = type { %"struct.std::_Vector_base<hermes::hbc::HBCExceptionHandlerInfo, std::allocator<hermes::hbc::HBCExceptionHandlerInfo>>::_Vector_impl" }
%"struct.std::_Vector_base<hermes::hbc::HBCExceptionHandlerInfo, std::allocator<hermes::hbc::HBCExceptionHandlerInfo>>::_Vector_impl" = type { %"struct.std::_Vector_base<hermes::hbc::HBCExceptionHandlerInfo, std::allocator<hermes::hbc::HBCExceptionHandlerInfo>>::_Vector_impl_data" }
%"struct.std::_Vector_base<hermes::hbc::HBCExceptionHandlerInfo, std::allocator<hermes::hbc::HBCExceptionHandlerInfo>>::_Vector_impl_data" = type { ptr, ptr, ptr }
%"class.std::unique_ptr.48" = type { %"struct.std::__uniq_ptr_data.49" }
%"struct.std::__uniq_ptr_data.49" = type { %"class.std::__uniq_ptr_impl.50" }
%"class.std::__uniq_ptr_impl.50" = type { %"class.std::tuple.51" }
%"class.std::tuple.51" = type { %"struct.std::_Tuple_impl.52" }
%"struct.std::_Tuple_impl.52" = type { %"struct.std::_Head_base.55" }
%"struct.std::_Head_base.55" = type { ptr }
%"class.llvh::ArrayRef.81" = type { ptr, i64 }
%"class.llvh::ArrayRef.74" = type { ptr, i64 }

; Function Attrs: mustprogress nounwind uwtable
define linkonce_odr hidden noundef ptr @_ZNK4llvh8ArrayRefIcE4dataEv(ptr noundef nonnull align 8 dereferenceable(16) %this) #0 comdat align 2 {
entry:
  %this.addr = alloca ptr, align 8
  store ptr %this, ptr %this.addr, align 8
  %this1 = load ptr, ptr %this.addr, align 8
  %Data = getelementptr inbounds %"class.llvh::ArrayRef.74", ptr %this1, i32 0, i32 0
  %0 = load ptr, ptr %Data, align 8
  ret ptr %0
}

; Function Attrs: mustprogress nounwind uwtable
define linkonce_odr hidden noundef i64 @_ZNK4llvh8ArrayRefIcE4sizeEv(ptr noundef nonnull align 8 dereferenceable(16) %this) #0 comdat align 2 {
entry:
  %this.addr = alloca ptr, align 8
  store ptr %this, ptr %this.addr, align 8
  %this1 = load ptr, ptr %this.addr, align 8
  %Length = getelementptr inbounds %"class.llvh::ArrayRef.74", ptr %this1, i32 0, i32 1
  %0 = load i64, ptr %Length, align 8
  ret i64 %0
}

; Function Attrs: mustprogress nounwind uwtable
define linkonce_odr hidden void @_ZN4llvh8ArrayRefIhEC2EPKhm(ptr noundef nonnull align 8 dereferenceable(16) %this, ptr noundef %data, i64 noundef %length) unnamed_addr #0 comdat align 2 {
entry:
  %this.addr = alloca ptr, align 8
  %data.addr = alloca ptr, align 8
  %length.addr = alloca i64, align 8
  store ptr %this, ptr %this.addr, align 8
  store ptr %data, ptr %data.addr, align 8
  store i64 %length, ptr %length.addr, align 8
  %this1 = load ptr, ptr %this.addr, align 8
  %Data = getelementptr inbounds %"class.llvh::ArrayRef", ptr %this1, i32 0, i32 0
  %0 = load ptr, ptr %data.addr, align 8
  store ptr %0, ptr %Data, align 8
  %Length = getelementptr inbounds %"class.llvh::ArrayRef", ptr %this1, i32 0, i32 1
  %1 = load i64, ptr %length.addr, align 8
  store i64 %1, ptr %Length, align 8
  ret void
}

; Function Attrs: mustprogress nounwind uwtable
define linkonce_odr hidden noundef ptr @_ZNK4llvh8ArrayRefIN6hermes3hbc12DebugOffsetsEE4dataEv(ptr noundef nonnull align 8 dereferenceable(16) %this) #0 comdat align 2 {
entry:
  %this.addr = alloca ptr, align 8
  store ptr %this, ptr %this.addr, align 8
  %this1 = load ptr, ptr %this.addr, align 8
  %Data = getelementptr inbounds %"class.llvh::ArrayRef.81", ptr %this1, i32 0, i32 0
  %0 = load ptr, ptr %Data, align 8
  ret ptr %0
}

; Function Attrs: mustprogress nounwind uwtable
define linkonce_odr hidden noundef i64 @_ZNK4llvh8ArrayRefIN6hermes3hbc12DebugOffsetsEE4sizeEv(ptr noundef nonnull align 8 dereferenceable(16) %this) #0 comdat align 2 {
entry:
  %this.addr = alloca ptr, align 8
  store ptr %this, ptr %this.addr, align 8
  %this1 = load ptr, ptr %this.addr, align 8
  %Length = getelementptr inbounds %"class.llvh::ArrayRef.81", ptr %this1, i32 0, i32 1
  %0 = load i64, ptr %Length, align 8
  ret i64 %0
}

; Function Attrs: mustprogress nounwind uwtable
define linkonce_odr hidden void @_ZN6hermes3hbc18BytecodeSerializer16writeBinaryArrayIcEEvN4llvh8ArrayRefIT_EE(ptr noundef nonnull align 8 dereferenceable(176) %this, ptr %array.coerce0, i64 %array.coerce1) #0 comdat align 2 {
entry:
  %array = alloca %"class.llvh::ArrayRef.74", align 8
  %this.addr = alloca ptr, align 8
  %size = alloca i64, align 8
  %agg.tmp = alloca %"class.llvh::ArrayRef", align 8
  %0 = getelementptr inbounds { ptr, i64 }, ptr %array, i32 0, i32 0
  store ptr %array.coerce0, ptr %0, align 8
  %1 = getelementptr inbounds { ptr, i64 }, ptr %array, i32 0, i32 1
  store i64 %array.coerce1, ptr %1, align 8
  store ptr %this, ptr %this.addr, align 8
  %this1 = load ptr, ptr %this.addr, align 8
  %call = call noundef i64 @_ZNK4llvh8ArrayRefIcE4sizeEv(ptr noundef nonnull align 8 dereferenceable(16) %array)
  %mul = mul i64 1, %call
  store i64 %mul, ptr %size, align 8
  %isLayout_ = getelementptr inbounds %"class.hermes::hbc::BytecodeSerializer", ptr %this1, i32 0, i32 4
  %2 = load i8, ptr %isLayout_, align 8
  %tobool = trunc i8 %2 to i1
  br i1 %tobool, label %if.end, label %if.then

if.then:                                          ; preds = %entry
  %outputHasher_ = getelementptr inbounds %"class.hermes::hbc::BytecodeSerializer", ptr %this1, i32 0, i32 8
  %call2 = call noundef ptr @_ZNK4llvh8ArrayRefIcE4dataEv(ptr noundef nonnull align 8 dereferenceable(16) %array)
  %3 = load i64, ptr %size, align 8
  call void @_ZN4llvh8ArrayRefIhEC2EPKhm(ptr noundef nonnull align 8 dereferenceable(16) %agg.tmp, ptr noundef %call2, i64 noundef %3)
  %4 = getelementptr inbounds { ptr, i64 }, ptr %agg.tmp, i32 0, i32 0
  %5 = load ptr, ptr %4, align 8
  %6 = getelementptr inbounds { ptr, i64 }, ptr %agg.tmp, i32 0, i32 1
  %7 = load i64, ptr %6, align 8
  call void @_ZN4llvh4SHA16updateENS_8ArrayRefIhEE(ptr noundef nonnull align 4 dereferenceable(112) %outputHasher_, ptr %5, i64 %7)
  %os_ = getelementptr inbounds %"class.hermes::hbc::BytecodeSerializer", ptr %this1, i32 0, i32 0
  %8 = load ptr, ptr %os_, align 8
  %call3 = call noundef ptr @_ZNK4llvh8ArrayRefIcE4dataEv(ptr noundef nonnull align 8 dereferenceable(16) %array)
  %9 = load i64, ptr %size, align 8
  %call4 = call noundef nonnull align 8 dereferenceable(36) ptr @_ZN4llvh11raw_ostream5writeEPKcm(ptr noundef nonnull align 8 dereferenceable(36) %8, ptr noundef %call3, i64 noundef %9)
  br label %if.end

if.end:                                           ; preds = %if.then, %entry
  %10 = load i64, ptr %size, align 8
  %loc_ = getelementptr inbounds %"class.hermes::hbc::BytecodeSerializer", ptr %this1, i32 0, i32 3
  %11 = load i64, ptr %loc_, align 8
  %add = add i64 %11, %10
  store i64 %add, ptr %loc_, align 8
  ret void
}

; Function Attrs: mustprogress nounwind uwtable
define linkonce_odr hidden void @_ZN4llvh8ArrayRefIcEC2EPKcm(ptr noundef nonnull align 8 dereferenceable(16) %this, ptr noundef %data, i64 noundef %length) unnamed_addr #0 comdat align 2 {
entry:
  %this.addr = alloca ptr, align 8
  %data.addr = alloca ptr, align 8
  %length.addr = alloca i64, align 8
  store ptr %this, ptr %this.addr, align 8
  store ptr %data, ptr %data.addr, align 8
  store i64 %length, ptr %length.addr, align 8
  %this1 = load ptr, ptr %this.addr, align 8
  %Data = getelementptr inbounds %"class.llvh::ArrayRef.74", ptr %this1, i32 0, i32 0
  %0 = load ptr, ptr %data.addr, align 8
  store ptr %0, ptr %Data, align 8
  %Length = getelementptr inbounds %"class.llvh::ArrayRef.74", ptr %this1, i32 0, i32 1
  %1 = load i64, ptr %length.addr, align 8
  store i64 %1, ptr %Length, align 8
  ret void
}

; Function Attrs: mustprogress nounwind uwtable
define linkonce_odr hidden void @_ZN6hermes3hbc18BytecodeSerializer16writeBinaryArrayINS0_12DebugOffsetsEEEvN4llvh8ArrayRefIT_EE(ptr noundef nonnull align 8 dereferenceable(176) %this, ptr %array.coerce0, i64 %array.coerce1) #0 comdat align 2 {
entry:
  %array = alloca %"class.llvh::ArrayRef.81", align 8
  %this.addr = alloca ptr, align 8
  %size = alloca i64, align 8
  %agg.tmp = alloca %"class.llvh::ArrayRef", align 8
  %0 = getelementptr inbounds { ptr, i64 }, ptr %array, i32 0, i32 0
  store ptr %array.coerce0, ptr %0, align 8
  %1 = getelementptr inbounds { ptr, i64 }, ptr %array, i32 0, i32 1
  store i64 %array.coerce1, ptr %1, align 8
  store ptr %this, ptr %this.addr, align 8
  %this1 = load ptr, ptr %this.addr, align 8
  %call = call noundef i64 @_ZNK4llvh8ArrayRefIN6hermes3hbc12DebugOffsetsEE4sizeEv(ptr noundef nonnull align 8 dereferenceable(16) %array)
  %mul = mul i64 12, %call
  store i64 %mul, ptr %size, align 8
  %isLayout_ = getelementptr inbounds %"class.hermes::hbc::BytecodeSerializer", ptr %this1, i32 0, i32 4
  %2 = load i8, ptr %isLayout_, align 8
  %tobool = trunc i8 %2 to i1
  br i1 %tobool, label %if.end, label %if.then

if.then:                                          ; preds = %entry
  %outputHasher_ = getelementptr inbounds %"class.hermes::hbc::BytecodeSerializer", ptr %this1, i32 0, i32 8
  %call2 = call noundef ptr @_ZNK4llvh8ArrayRefIN6hermes3hbc12DebugOffsetsEE4dataEv(ptr noundef nonnull align 8 dereferenceable(16) %array)
  %3 = load i64, ptr %size, align 8
  call void @_ZN4llvh8ArrayRefIhEC2EPKhm(ptr noundef nonnull align 8 dereferenceable(16) %agg.tmp, ptr noundef %call2, i64 noundef %3)
  %4 = getelementptr inbounds { ptr, i64 }, ptr %agg.tmp, i32 0, i32 0
  %5 = load ptr, ptr %4, align 8
  %6 = getelementptr inbounds { ptr, i64 }, ptr %agg.tmp, i32 0, i32 1
  %7 = load i64, ptr %6, align 8
  call void @_ZN4llvh4SHA16updateENS_8ArrayRefIhEE(ptr noundef nonnull align 4 dereferenceable(112) %outputHasher_, ptr %5, i64 %7)
  %os_ = getelementptr inbounds %"class.hermes::hbc::BytecodeSerializer", ptr %this1, i32 0, i32 0
  %8 = load ptr, ptr %os_, align 8
  %call3 = call noundef ptr @_ZNK4llvh8ArrayRefIN6hermes3hbc12DebugOffsetsEE4dataEv(ptr noundef nonnull align 8 dereferenceable(16) %array)
  %9 = load i64, ptr %size, align 8
  %call4 = call noundef nonnull align 8 dereferenceable(36) ptr @_ZN4llvh11raw_ostream5writeEPKcm(ptr noundef nonnull align 8 dereferenceable(36) %8, ptr noundef %call3, i64 noundef %9)
  br label %if.end

if.end:                                           ; preds = %if.then, %entry
  %10 = load i64, ptr %size, align 8
  %loc_ = getelementptr inbounds %"class.hermes::hbc::BytecodeSerializer", ptr %this1, i32 0, i32 3
  %11 = load i64, ptr %loc_, align 8
  %add = add i64 %11, %10
  store i64 %add, ptr %loc_, align 8
  ret void
}

; Function Attrs: mustprogress nounwind uwtable
define linkonce_odr hidden void @_ZN4llvh8ArrayRefIN6hermes3hbc12DebugOffsetsEEC2EPKS3_m(ptr noundef nonnull align 8 dereferenceable(16) %this, ptr noundef %data, i64 noundef %length) unnamed_addr #0 comdat align 2 {
entry:
  %this.addr = alloca ptr, align 8
  %data.addr = alloca ptr, align 8
  %length.addr = alloca i64, align 8
  store ptr %this, ptr %this.addr, align 8
  store ptr %data, ptr %data.addr, align 8
  store i64 %length, ptr %length.addr, align 8
  %this1 = load ptr, ptr %this.addr, align 8
  %Data = getelementptr inbounds %"class.llvh::ArrayRef.81", ptr %this1, i32 0, i32 0
  %0 = load ptr, ptr %data.addr, align 8
  store ptr %0, ptr %Data, align 8
  %Length = getelementptr inbounds %"class.llvh::ArrayRef.81", ptr %this1, i32 0, i32 1
  %1 = load i64, ptr %length.addr, align 8
  store i64 %1, ptr %Length, align 8
  ret void
}

; Function Attrs: mustprogress nounwind uwtable
define linkonce_odr hidden void @_ZN6hermes3hbc18BytecodeSerializer11writeBinaryIcEEvRKT_(ptr noundef nonnull align 8 dereferenceable(176) %this, ptr noundef nonnull align 1 dereferenceable(1) %structure) #0 comdat align 2 {
entry:
  %this.addr = alloca ptr, align 8
  %structure.addr = alloca ptr, align 8
  %agg.tmp = alloca %"class.llvh::ArrayRef.74", align 8
  store ptr %this, ptr %this.addr, align 8
  store ptr %structure, ptr %structure.addr, align 8
  %this1 = load ptr, ptr %this.addr, align 8
  %0 = load ptr, ptr %structure.addr, align 8
  call void @_ZN4llvh8ArrayRefIcEC2EPKcm(ptr noundef nonnull align 8 dereferenceable(16) %agg.tmp, ptr noundef %0, i64 noundef 1)
  %1 = getelementptr inbounds { ptr, i64 }, ptr %agg.tmp, i32 0, i32 0
  %2 = load ptr, ptr %1, align 8
  %3 = getelementptr inbounds { ptr, i64 }, ptr %agg.tmp, i32 0, i32 1
  %4 = load i64, ptr %3, align 8
  call void @_ZN6hermes3hbc18BytecodeSerializer16writeBinaryArrayIcEEvN4llvh8ArrayRefIT_EE(ptr noundef nonnull align 8 dereferenceable(176) %this1, ptr %2, i64 %4)
  ret void
}

; Function Attrs: mustprogress nounwind uwtable
define linkonce_odr hidden void @_ZN6hermes3hbc18BytecodeSerializer11writeBinaryINS0_12DebugOffsetsEEEvRKT_(ptr noundef nonnull align 8 dereferenceable(176) %this, ptr noundef nonnull align 4 dereferenceable(12) %structure) #0 comdat align 2 {
entry:
  %this.addr = alloca ptr, align 8
  %structure.addr = alloca ptr, align 8
  %agg.tmp = alloca %"class.llvh::ArrayRef.81", align 8
  store ptr %this, ptr %this.addr, align 8
  store ptr %structure, ptr %structure.addr, align 8
  %this1 = load ptr, ptr %this.addr, align 8
  %0 = load ptr, ptr %structure.addr, align 8
  call void @_ZN4llvh8ArrayRefIN6hermes3hbc12DebugOffsetsEEC2EPKS3_m(ptr noundef nonnull align 8 dereferenceable(16) %agg.tmp, ptr noundef %0, i64 noundef 1)
  %1 = getelementptr inbounds { ptr, i64 }, ptr %agg.tmp, i32 0, i32 0
  %2 = load ptr, ptr %1, align 8
  %3 = getelementptr inbounds { ptr, i64 }, ptr %agg.tmp, i32 0, i32 1
  %4 = load i64, ptr %3, align 8
  call void @_ZN6hermes3hbc18BytecodeSerializer16writeBinaryArrayINS0_12DebugOffsetsEEEvN4llvh8ArrayRefIT_EE(ptr noundef nonnull align 8 dereferenceable(176) %this1, ptr %2, i64 %4)
  ret void
}

; Function Attrs: mustprogress nounwind uwtable
define linkonce_odr hidden noundef ptr @_ZNK6hermes3hbc16BytecodeFunction15getDebugOffsetsEv(ptr noundef nonnull align 8 dereferenceable(104) %this) #0 comdat align 2 {
entry:
  %this.addr = alloca ptr, align 8
  store ptr %this, ptr %this.addr, align 8
  %this1 = load ptr, ptr %this.addr, align 8
  %debugOffsets_ = getelementptr inbounds %"class.hermes::hbc::BytecodeFunction", ptr %this1, i32 0, i32 2
  ret ptr %debugOffsets_
}

; Function Attrs: mustprogress nounwind uwtable
define linkonce_odr hidden void @_ZN6hermes3hbc18BytecodeSerializer3padEj(ptr noundef nonnull align 8 dereferenceable(176) %this, i32 noundef %alignment) #0 comdat align 2 {
entry:
  %this.addr = alloca ptr, align 8
  %alignment.addr = alloca i32, align 4
  %bytes = alloca i32, align 4
  %i = alloca i32, align 4
  %ref.tmp = alloca i8, align 1
  store ptr %this, ptr %this.addr, align 8
  store i32 %alignment, ptr %alignment.addr, align 4
  %this1 = load ptr, ptr %this.addr, align 8
  %loc_ = getelementptr inbounds %"class.hermes::hbc::BytecodeSerializer", ptr %this1, i32 0, i32 3
  %0 = load i64, ptr %loc_, align 8
  %1 = load i32, ptr %alignment.addr, align 4
  %conv = zext i32 %1 to i64
  %rem = urem i64 %0, %conv
  %cmp = icmp eq i64 %rem, 0
  br i1 %cmp, label %if.then, label %if.end

if.then:                                          ; preds = %entry
  br label %for.end

if.end:                                           ; preds = %entry
  %2 = load i32, ptr %alignment.addr, align 4
  %conv2 = zext i32 %2 to i64
  %loc_3 = getelementptr inbounds %"class.hermes::hbc::BytecodeSerializer", ptr %this1, i32 0, i32 3
  %3 = load i64, ptr %loc_3, align 8
  %4 = load i32, ptr %alignment.addr, align 4
  %conv4 = zext i32 %4 to i64
  %rem5 = urem i64 %3, %conv4
  %sub = sub i64 %conv2, %rem5
  %conv6 = trunc i64 %sub to i32
  store i32 %conv6, ptr %bytes, align 4
  store i32 0, ptr %i, align 4
  br label %for.cond

for.cond:                                         ; preds = %for.inc, %if.end
  %5 = load i32, ptr %i, align 4
  %6 = load i32, ptr %bytes, align 4
  %cmp7 = icmp ult i32 %5, %6
  br i1 %cmp7, label %for.body, label %for.end

for.body:                                         ; preds = %for.cond
  store i8 0, ptr %ref.tmp, align 1
  call void @_ZN6hermes3hbc18BytecodeSerializer11writeBinaryIcEEvRKT_(ptr noundef nonnull align 8 dereferenceable(176) %this1, ptr noundef nonnull align 1 dereferenceable(1) %ref.tmp)
  br label %for.inc

for.inc:                                          ; preds = %for.body
  %7 = load i32, ptr %i, align 4
  %inc = add i32 %7, 1
  store i32 %inc, ptr %i, align 4
  br label %for.cond, !llvm.loop !6

for.end:                                          ; preds = %for.cond, %if.then
  ret void
}

; Function Attrs: mustprogress nounwind uwtable
define linkonce_odr hidden noundef zeroext i1 @_ZNK6hermes3hbc16BytecodeFunction12hasDebugInfoEv(ptr noundef nonnull align 8 dereferenceable(104) %this) #0 comdat align 2 {
entry:
  %this.addr = alloca ptr, align 8
  store ptr %this, ptr %this.addr, align 8
  %this1 = load ptr, ptr %this.addr, align 8
  %debugOffsets_ = getelementptr inbounds %"class.hermes::hbc::BytecodeFunction", ptr %this1, i32 0, i32 2
  %sourceLocations = getelementptr inbounds %"struct.hermes::hbc::DebugOffsets", ptr %debugOffsets_, i32 0, i32 0
  %0 = load i32, ptr %sourceLocations, align 8
  %cmp = icmp ne i32 %0, -1
  br i1 %cmp, label %lor.end, label %lor.rhs

lor.rhs:                                          ; preds = %entry
  %debugOffsets_2 = getelementptr inbounds %"class.hermes::hbc::BytecodeFunction", ptr %this1, i32 0, i32 2
  %scopeDescData = getelementptr inbounds %"struct.hermes::hbc::DebugOffsets", ptr %debugOffsets_2, i32 0, i32 1
  %1 = load i32, ptr %scopeDescData, align 4
  %cmp3 = icmp ne i32 %1, -1
  br label %lor.end

lor.end:                                          ; preds = %lor.rhs, %entry
  %2 = phi i1 [ true, %entry ], [ %cmp3, %lor.rhs ]
  ret i1 %2
}

; Function Attrs: mustprogress nounwind uwtable
define hidden void @_ZN6hermes3hbc18BytecodeSerializer21serializeDebugOffsetsERNS0_16BytecodeFunctionE(ptr noundef nonnull align 8 dereferenceable(176) %this, ptr noundef nonnull align 8 dereferenceable(104) %BF) #0 align 2 {
entry:
  %this.addr = alloca ptr, align 8
  %BF.addr = alloca ptr, align 8
  %offsets = alloca ptr, align 8
  store ptr %this, ptr %this.addr, align 8
  store ptr %BF, ptr %BF.addr, align 8
  %this1 = load ptr, ptr %this.addr, align 8
  %options_ = getelementptr inbounds %"class.hermes::hbc::BytecodeSerializer", ptr %this1, i32 0, i32 2
  %stripDebugInfoSection = getelementptr inbounds %"struct.hermes::BytecodeGenerationOptions", ptr %options_, i32 0, i32 2
  %0 = load i8, ptr %stripDebugInfoSection, align 1
  %tobool = trunc i8 %0 to i1
  br i1 %tobool, label %if.then, label %lor.lhs.false

lor.lhs.false:                                    ; preds = %entry
  %1 = load ptr, ptr %BF.addr, align 8
  %call = call noundef zeroext i1 @_ZNK6hermes3hbc16BytecodeFunction12hasDebugInfoEv(ptr noundef nonnull align 8 dereferenceable(104) %1)
  br i1 %call, label %if.end, label %if.then

if.then:                                          ; preds = %lor.lhs.false, %entry
  br label %return

if.end:                                           ; preds = %lor.lhs.false
  call void @_ZN6hermes3hbc18BytecodeSerializer3padEj(ptr noundef nonnull align 8 dereferenceable(176) %this1, i32 noundef 4)
  %2 = load ptr, ptr %BF.addr, align 8
  %call2 = call noundef ptr @_ZNK6hermes3hbc16BytecodeFunction15getDebugOffsetsEv(ptr noundef nonnull align 8 dereferenceable(104) %2)
  store ptr %call2, ptr %offsets, align 8
  %3 = load ptr, ptr %offsets, align 8
  call void @_ZN6hermes3hbc18BytecodeSerializer11writeBinaryINS0_12DebugOffsetsEEEvRKT_(ptr noundef nonnull align 8 dereferenceable(176) %this1, ptr noundef nonnull align 4 dereferenceable(12) %3)
  br label %return

return:                                           ; preds = %if.end, %if.then
  ret void
}