; Function Attrs: mustprogress nounwind uwtable
define hidden void @_ZN6hermes3hbc18BytecodeSerializer21serializeDebugOffsetsERNS0_16BytecodeFunctionE(ptr noundef nonnull align 8 dereferenceable(176) %this, ptr noundef nonnull align 8 dereferenceable(104) %BF) local_unnamed_addr #0 align 2 {
entry:
  %ref.tmp.i = alloca i8, align 1
  %stripDebugInfoSection = getelementptr inbounds nuw i8, ptr %this, i64 21
  %0 = load i8, ptr %stripDebugInfoSection, align 1
  %tobool = trunc i8 %0 to i1
  br i1 %tobool, label %return, label %lor.lhs.false

lor.lhs.false:                                    ; preds = %entry
  %debugOffsets_.i = getelementptr inbounds nuw i8, ptr %BF, i64 56
  %1 = load i32, ptr %debugOffsets_.i, align 8
  %cmp.not.i = icmp ne i32 %1, -1
  %scopeDescData.i = getelementptr inbounds nuw i8, ptr %BF, i64 60
  %2 = load i32, ptr %scopeDescData.i, align 4
  %cmp3.i = icmp ne i32 %2, -1
  %3 = select i1 %cmp.not.i, i1 true, i1 %cmp3.i
  br i1 %3, label %if.end, label %return

if.end:                                           ; preds = %lor.lhs.false
  call void @llvm.lifetime.start.p0(i64 1, ptr nonnull %ref.tmp.i)
  %loc_.i = getelementptr inbounds nuw i8, ptr %this, i64 40
  %4 = load i64, ptr %loc_.i, align 8
  %rem.i = and i64 %4, 3
  %cmp.i = icmp eq i64 %rem.i, 0
  br i1 %cmp.i, label %_ZN6hermes3hbc18BytecodeSerializer3padEj.exit, label %if.end.i

if.end.i:                                         ; preds = %if.end
  %5 = trunc nuw nsw i64 %rem.i to i32
  %conv6.i = sub nuw nsw i32 4, %5
  %isLayout_.i.i.i = getelementptr inbounds nuw i8, ptr %this, i64 48
  %outputHasher_.i.i.i = getelementptr inbounds nuw i8, ptr %this, i64 64
  %6 = load i8, ptr %isLayout_.i.i.i, align 8
  %7 = trunc i8 %6 to i1
  br i1 %7, label %for.body.us.i.preheader, label %for.body.i

for.body.us.i.preheader:                          ; preds = %if.end.i
  %8 = xor i64 %rem.i, 3
  %9 = add i64 %4, %8
  %10 = add i64 %9, 1
  store i64 %10, ptr %loc_.i, align 8
  br label %_ZN6hermes3hbc18BytecodeSerializer3padEj.exit

for.body.i:                                       ; preds = %if.end.i, %_ZN6hermes3hbc18BytecodeSerializer11writeBinaryIcEEvRKT_.exit.i
  %11 = phi i64 [ %add.i.i.i, %_ZN6hermes3hbc18BytecodeSerializer11writeBinaryIcEEvRKT_.exit.i ], [ %4, %if.end.i ]
  %i.05.i = phi i32 [ %inc.i, %_ZN6hermes3hbc18BytecodeSerializer11writeBinaryIcEEvRKT_.exit.i ], [ 0, %if.end.i ]
  store i8 0, ptr %ref.tmp.i, align 1
  %12 = load i8, ptr %isLayout_.i.i.i, align 8
  %tobool.i.i.i = trunc i8 %12 to i1
  br i1 %tobool.i.i.i, label %_ZN6hermes3hbc18BytecodeSerializer11writeBinaryIcEEvRKT_.exit.i, label %if.then.i.i.i

if.then.i.i.i:                                    ; preds = %for.body.i
  call void @_ZN4llvh4SHA16updateENS_8ArrayRefIhEE(ptr noundef nonnull align 4 dereferenceable(112) %outputHasher_.i.i.i, ptr nonnull align 1 dereferenceable(1) %ref.tmp.i, i64 1) #12
  %13 = load ptr, ptr %this, align 8
  %call4.i.i.i = call noundef nonnull align 8 dereferenceable(36) ptr @_ZN4llvh11raw_ostream5writeEPKcm(ptr noundef nonnull align 8 dereferenceable(36) %13, ptr noundef nonnull align 1 dereferenceable(1) %ref.tmp.i, i64 noundef 1) #12
  %.pre.i = load i64, ptr %loc_.i, align 8
  br label %_ZN6hermes3hbc18BytecodeSerializer11writeBinaryIcEEvRKT_.exit.i

_ZN6hermes3hbc18BytecodeSerializer11writeBinaryIcEEvRKT_.exit.i: ; preds = %if.then.i.i.i, %for.body.i
  %14 = phi i64 [ %11, %for.body.i ], [ %.pre.i, %if.then.i.i.i ]
  %add.i.i.i = add i64 %14, 1
  store i64 %add.i.i.i, ptr %loc_.i, align 8
  %inc.i = add nuw nsw i32 %i.05.i, 1
  %exitcond.not = icmp eq i32 %inc.i, %conv6.i
  br i1 %exitcond.not, label %_ZN6hermes3hbc18BytecodeSerializer3padEj.exit, label %for.body.i, !llvm.loop !6

_ZN6hermes3hbc18BytecodeSerializer3padEj.exit:    ; preds = %_ZN6hermes3hbc18BytecodeSerializer11writeBinaryIcEEvRKT_.exit.i, %if.end, %for.body.us.i.preheader
  %15 = phi i64 [ %4, %if.end ], [ %10, %for.body.us.i.preheader ], [ %add.i.i.i, %_ZN6hermes3hbc18BytecodeSerializer11writeBinaryIcEEvRKT_.exit.i ]
  call void @llvm.lifetime.end.p0(i64 1, ptr nonnull %ref.tmp.i)
  %isLayout_.i.i = getelementptr inbounds nuw i8, ptr %this, i64 48
  %16 = load i8, ptr %isLayout_.i.i, align 8
  %tobool.i.i = trunc i8 %16 to i1
  br i1 %tobool.i.i, label %_ZN6hermes3hbc18BytecodeSerializer11writeBinaryINS0_12DebugOffsetsEEEvRKT_.exit, label %if.then.i.i

if.then.i.i:                                      ; preds = %_ZN6hermes3hbc18BytecodeSerializer3padEj.exit
  %outputHasher_.i.i = getelementptr inbounds nuw i8, ptr %this, i64 64
  call void @_ZN4llvh4SHA16updateENS_8ArrayRefIhEE(ptr noundef nonnull align 4 dereferenceable(112) %outputHasher_.i.i, ptr nonnull align 4 dereferenceable(12) %debugOffsets_.i, i64 12) #12
  %17 = load ptr, ptr %this, align 8
  %call4.i.i = call noundef nonnull align 8 dereferenceable(36) ptr @_ZN4llvh11raw_ostream5writeEPKcm(ptr noundef nonnull align 8 dereferenceable(36) %17, ptr noundef nonnull align 4 dereferenceable(12) %debugOffsets_.i, i64 noundef 12) #12
  %.pre = load i64, ptr %loc_.i, align 8
  br label %_ZN6hermes3hbc18BytecodeSerializer11writeBinaryINS0_12DebugOffsetsEEEvRKT_.exit

_ZN6hermes3hbc18BytecodeSerializer11writeBinaryINS0_12DebugOffsetsEEEvRKT_.exit: ; preds = %_ZN6hermes3hbc18BytecodeSerializer3padEj.exit, %if.then.i.i
  %18 = phi i64 [ %15, %_ZN6hermes3hbc18BytecodeSerializer3padEj.exit ], [ %.pre, %if.then.i.i ]
  %add.i.i = add i64 %18, 12
  store i64 %add.i.i, ptr %loc_.i, align 8
  br label %return

return:                                           ; preds = %entry, %lor.lhs.false, %_ZN6hermes3hbc18BytecodeSerializer11writeBinaryINS0_12DebugOffsetsEEEvRKT_.exit
  ret void
}